target datalayout = "e-m:e-p270:32:32-p271:32:32-p272:64:64-i64:64-i128:128-f80:128-n8:16:32:64-S128"
target triple = "x86_64-pc-linux-gnu"

%"class.Ipopt::GenAugSystemSolver" = type <{ %"class.Ipopt::AugSystemSolver.base", [7 x i8], %"class.Ipopt::SmartPtr.3", i32, [4 x i8], double, i32, [4 x i8], double, i32, [4 x i8], double, i32, i32, double, i32, i32, double, ptr, ptr, ptr, ptr, i8, [7 x i8] }>
%"class.Ipopt::AugSystemSolver.base" = type { %"class.Ipopt::AlgorithmStrategyObject.base" }
%"class.Ipopt::AlgorithmStrategyObject.base" = type <{ %"class.Ipopt::ReferencedObject.base", [4 x i8], %"class.Ipopt::SmartPtr", %"class.Ipopt::SmartPtr.0", %"class.Ipopt::SmartPtr.1", %"class.Ipopt::SmartPtr.2", i8 }>
%"class.Ipopt::ReferencedObject.base" = type <{ ptr, i32 }>
%"class.Ipopt::SmartPtr" = type { ptr }
%"class.Ipopt::SmartPtr.0" = type { ptr }
%"class.Ipopt::SmartPtr.1" = type { ptr }
%"class.Ipopt::SmartPtr.2" = type { ptr }
%"class.Ipopt::SmartPtr.3" = type { ptr }
%"class.Ipopt::TaggedObject" = type { %"class.Ipopt::ReferencedObject.base", %"class.Ipopt::Subject", i32, i32 }
%"class.Ipopt::Subject" = type { ptr, %"class.std::vector.29" }
%"class.std::vector.29" = type { %"struct.std::_Vector_base.30" }
%"struct.std::_Vector_base.30" = type { %"struct.std::_Vector_base<Ipopt::Observer *, std::allocator<Ipopt::Observer *>>::_Vector_impl" }
%"struct.std::_Vector_base<Ipopt::Observer *, std::allocator<Ipopt::Observer *>>::_Vector_impl" = type { %"struct.std::_Vector_base<Ipopt::Observer *, std::allocator<Ipopt::Observer *>>::_Vector_impl_data" }
%"struct.std::_Vector_base<Ipopt::Observer *, std::allocator<Ipopt::Observer *>>::_Vector_impl_data" = type { ptr, ptr, ptr }

; Function Attrs: mustprogress nounwind uwtable
define linkonce_odr noundef i32 @_ZNK5Ipopt12TaggedObject6GetTagEv(ptr noundef nonnull align 8 dereferenceable(56) %0) #5 comdat align 2 {
  %2 = alloca ptr, align 8
  store ptr %0, ptr %2, align 8, !tbaa !118
  %3 = load ptr, ptr %2, align 8
  %4 = getelementptr inbounds nuw %"class.Ipopt::TaggedObject", ptr %3, i32 0, i32 2
  %5 = load i32, ptr %4, align 8, !tbaa !120
  ret i32 %5
}

; Function Attrs: mustprogress uwtable
define void @_ZN5Ipopt18GenAugSystemSolver10UpdateTagsEPKNS_9SymMatrixEdPKNS_6VectorEdS6_dRKNS_6MatrixES6_dS9_S6_d(ptr noundef nonnull align 8 dereferenceable(177) %0, ptr noundef %1, double noundef %2, ptr noundef %3, double noundef %4, ptr noundef %5, double noundef %6, ptr noundef nonnull align 8 dereferenceable(69) %7, ptr noundef %8, double noundef %9, ptr noundef nonnull align 8 dereferenceable(69) %10, ptr noundef %11, double noundef %12) #4 align 2 {
  %14 = alloca ptr, align 8
  %15 = alloca ptr, align 8
  %16 = alloca double, align 8
  %17 = alloca ptr, align 8
  %18 = alloca double, align 8
  %19 = alloca ptr, align 8
  %20 = alloca double, align 8
  %21 = alloca ptr, align 8
  %22 = alloca ptr, align 8
  %23 = alloca double, align 8
  %24 = alloca ptr, align 8
  %25 = alloca ptr, align 8
  %26 = alloca double, align 8
  store ptr %0, ptr %14, align 8, !tbaa !3
  store ptr %1, ptr %15, align 8, !tbaa !70
  store double %2, ptr %16, align 8, !tbaa !72
  store ptr %3, ptr %17, align 8, !tbaa !73
  store double %4, ptr %18, align 8, !tbaa !72
  store ptr %5, ptr %19, align 8, !tbaa !73
  store double %6, ptr %20, align 8, !tbaa !72
  store ptr %7, ptr %21, align 8, !tbaa !75
  store ptr %8, ptr %22, align 8, !tbaa !73
  store double %9, ptr %23, align 8, !tbaa !72
  store ptr %10, ptr %24, align 8, !tbaa !75
  store ptr %11, ptr %25, align 8, !tbaa !73
  store double %12, ptr %26, align 8, !tbaa !72
  %27 = load ptr, ptr %14, align 8
  %28 = load ptr, ptr %15, align 8, !tbaa !70
  %29 = icmp ne ptr %28, null
  br i1 %29, label %30, label %34

30:                                               ; preds = %13
  %31 = load ptr, ptr %15, align 8, !tbaa !70
  %32 = call noundef i32 @_ZNK5Ipopt12TaggedObject6GetTagEv(ptr noundef nonnull align 8 dereferenceable(56) %31)
  %33 = getelementptr inbounds nuw %"class.Ipopt::GenAugSystemSolver", ptr %27, i32 0, i32 3
  store i32 %32, ptr %33, align 8, !tbaa !12
  br label %36

34:                                               ; preds = %13
  %35 = getelementptr inbounds nuw %"class.Ipopt::GenAugSystemSolver", ptr %27, i32 0, i32 3
  store i32 0, ptr %35, align 8, !tbaa !12
  br label %36

36:                                               ; preds = %34, %30
  %37 = load double, ptr %16, align 8, !tbaa !72
  %38 = getelementptr inbounds nuw %"class.Ipopt::GenAugSystemSolver", ptr %27, i32 0, i32 5
  store double %37, ptr %38, align 8, !tbaa !95
  %39 = load ptr, ptr %17, align 8, !tbaa !73
  %40 = icmp ne ptr %39, null
  br i1 %40, label %41, label %45

41:                                               ; preds = %36
  %42 = load ptr, ptr %17, align 8, !tbaa !73
  %43 = call noundef i32 @_ZNK5Ipopt12TaggedObject6GetTagEv(ptr noundef nonnull align 8 dereferenceable(56) %42)
  %44 = getelementptr inbounds nuw %"class.Ipopt::GenAugSystemSolver", ptr %27, i32 0, i32 6
  store i32 %43, ptr %44, align 8, !tbaa !30
  br label %47

45:                                               ; preds = %36
  %46 = getelementptr inbounds nuw %"class.Ipopt::GenAugSystemSolver", ptr %27, i32 0, i32 6
  store i32 0, ptr %46, align 8, !tbaa !30
  br label %47

47:                                               ; preds = %45, %41
  %48 = load double, ptr %18, align 8, !tbaa !72
  %49 = getelementptr inbounds nuw %"class.Ipopt::GenAugSystemSolver", ptr %27, i32 0, i32 8
  store double %48, ptr %49, align 8, !tbaa !31
  %50 = load ptr, ptr %19, align 8, !tbaa !73
  %51 = icmp ne ptr %50, null
  br i1 %51, label %52, label %56

52:                                               ; preds = %47
  %53 = load ptr, ptr %19, align 8, !tbaa !73
  %54 = call noundef i32 @_ZNK5Ipopt12TaggedObject6GetTagEv(ptr noundef nonnull align 8 dereferenceable(56) %53)
  %55 = getelementptr inbounds nuw %"class.Ipopt::GenAugSystemSolver", ptr %27, i32 0, i32 9
  store i32 %54, ptr %55, align 8, !tbaa !32
  br label %58

56:                                               ; preds = %47
  %57 = getelementptr inbounds nuw %"class.Ipopt::GenAugSystemSolver", ptr %27, i32 0, i32 9
  store i32 0, ptr %57, align 8, !tbaa !32
  br label %58

58:                                               ; preds = %56, %52
  %59 = load double, ptr %20, align 8, !tbaa !72
  %60 = getelementptr inbounds nuw %"class.Ipopt::GenAugSystemSolver", ptr %27, i32 0, i32 11
  store double %59, ptr %60, align 8, !tbaa !33
  %61 = load ptr, ptr %22, align 8, !tbaa !73
  %62 = icmp ne ptr %61, null
  br i1 %62, label %63, label %67

63:                                               ; preds = %58
  %64 = load ptr, ptr %22, align 8, !tbaa !73
  %65 = call noundef i32 @_ZNK5Ipopt12TaggedObject6GetTagEv(ptr noundef nonnull align 8 dereferenceable(56) %64)
  %66 = getelementptr inbounds nuw %"class.Ipopt::GenAugSystemSolver", ptr %27, i32 0, i32 13
  store i32 %65, ptr %66, align 4, !tbaa !35
  br label %69

67:                                               ; preds = %58
  %68 = getelementptr inbounds nuw %"class.Ipopt::GenAugSystemSolver", ptr %27, i32 0, i32 13
  store i32 0, ptr %68, align 4, !tbaa !35
  br label %69

69:                                               ; preds = %67, %63
  %70 = load double, ptr %23, align 8, !tbaa !72
  %71 = getelementptr inbounds nuw %"class.Ipopt::GenAugSystemSolver", ptr %27, i32 0, i32 14
  store double %70, ptr %71, align 8, !tbaa !36
  %72 = load ptr, ptr %25, align 8, !tbaa !73
  %73 = icmp ne ptr %72, null
  br i1 %73, label %74, label %78

74:                                               ; preds = %69
  %75 = load ptr, ptr %25, align 8, !tbaa !73
  %76 = call noundef i32 @_ZNK5Ipopt12TaggedObject6GetTagEv(ptr noundef nonnull align 8 dereferenceable(56) %75)
  %77 = getelementptr inbounds nuw %"class.Ipopt::GenAugSystemSolver", ptr %27, i32 0, i32 16
  store i32 %76, ptr %77, align 4, !tbaa !38
  br label %80

78:                                               ; preds = %69
  %79 = getelementptr inbounds nuw %"class.Ipopt::GenAugSystemSolver", ptr %27, i32 0, i32 16
  store i32 0, ptr %79, align 4, !tbaa !38
  br label %80

80:                                               ; preds = %78, %74
  %81 = load double, ptr %26, align 8, !tbaa !72
  %82 = getelementptr inbounds nuw %"class.Ipopt::GenAugSystemSolver", ptr %27, i32 0, i32 17
  store double %81, ptr %82, align 8, !tbaa !39
  %83 = load ptr, ptr %21, align 8, !tbaa !75
  %84 = call noundef i32 @_ZNK5Ipopt12TaggedObject6GetTagEv(ptr noundef nonnull align 8 dereferenceable(56) %83)
  %85 = getelementptr inbounds nuw %"class.Ipopt::GenAugSystemSolver", ptr %27, i32 0, i32 12
  store i32 %84, ptr %85, align 8, !tbaa !34
  %86 = load ptr, ptr %24, align 8, !tbaa !75
  %87 = call noundef i32 @_ZNK5Ipopt12TaggedObject6GetTagEv(ptr noundef nonnull align 8 dereferenceable(56) %86)
  %88 = getelementptr inbounds nuw %"class.Ipopt::GenAugSystemSolver", ptr %27, i32 0, i32 15
  store i32 %87, ptr %88, align 8, !tbaa !37
  ret void
}