; Function Attrs: mustprogress nofree norecurse nosync nounwind willreturn memory(argmem: readwrite) uwtable
define void @_ZN5Ipopt18GenAugSystemSolver10UpdateTagsEPKNS_9SymMatrixEdPKNS_6VectorEdS6_dRKNS_6MatrixES6_dS9_S6_d(ptr noundef nonnull writeonly align 8 captures(none) dereferenceable(177) initializes((64, 68), (72, 84), (88, 100), (104, 144)) %0, ptr noundef readonly %1, double noundef %2, ptr noundef readonly %3, double noundef %4, ptr noundef readonly %5, double noundef %6, ptr noundef nonnull readonly align 8 captures(none) dereferenceable(69) %7, ptr noundef readonly %8, double noundef %9, ptr noundef nonnull readonly align 8 captures(none) dereferenceable(69) %10, ptr noundef readonly %11, double noundef %12) local_unnamed_addr #3 align 2 {
  %.not = icmp eq ptr %1, null
  br i1 %.not, label %17, label %14

14:                                               ; preds = %13
  %15 = getelementptr inbounds nuw i8, ptr %1, i64 48
  %16 = load i32, ptr %15, align 8, !tbaa !80
  br label %17

17:                                               ; preds = %13, %14
  %.sink = phi i32 [ %16, %14 ], [ 0, %13 ]
  %18 = getelementptr inbounds nuw i8, ptr %0, i64 64
  store i32 %.sink, ptr %18, align 8, !tbaa !14
  %19 = getelementptr inbounds nuw i8, ptr %0, i64 72
  store double %2, ptr %19, align 8, !tbaa !99
  %.not22 = icmp eq ptr %3, null
  br i1 %.not22, label %23, label %20

20:                                               ; preds = %17
  %21 = getelementptr inbounds nuw i8, ptr %3, i64 48
  %22 = load i32, ptr %21, align 8, !tbaa !80
  br label %23

23:                                               ; preds = %17, %20
  %.sink26 = phi i32 [ %22, %20 ], [ 0, %17 ]
  %24 = getelementptr inbounds nuw i8, ptr %0, i64 80
  store i32 %.sink26, ptr %24, align 8, !tbaa !29
  %25 = getelementptr inbounds nuw i8, ptr %0, i64 88
  store double %4, ptr %25, align 8, !tbaa !30
  %.not23 = icmp eq ptr %5, null
  br i1 %.not23, label %29, label %26

26:                                               ; preds = %23
  %27 = getelementptr inbounds nuw i8, ptr %5, i64 48
  %28 = load i32, ptr %27, align 8, !tbaa !80
  br label %29

29:                                               ; preds = %23, %26
  %.sink27 = phi i32 [ %28, %26 ], [ 0, %23 ]
  %30 = getelementptr inbounds nuw i8, ptr %0, i64 96
  store i32 %.sink27, ptr %30, align 8, !tbaa !31
  %31 = getelementptr inbounds nuw i8, ptr %0, i64 104
  store double %6, ptr %31, align 8, !tbaa !100
  %.not24 = icmp eq ptr %8, null
  br i1 %.not24, label %35, label %32

32:                                               ; preds = %29
  %33 = getelementptr inbounds nuw i8, ptr %8, i64 48
  %34 = load i32, ptr %33, align 8, !tbaa !80
  br label %35

35:                                               ; preds = %29, %32
  %.sink28 = phi i32 [ %34, %32 ], [ 0, %29 ]
  %36 = getelementptr inbounds nuw i8, ptr %0, i64 116
  store i32 %.sink28, ptr %36, align 4, !tbaa !81
  %37 = getelementptr inbounds nuw i8, ptr %0, i64 120
  store double %9, ptr %37, align 8, !tbaa !101
  %.not25 = icmp eq ptr %11, null
  br i1 %.not25, label %41, label %38

38:                                               ; preds = %35
  %39 = getelementptr inbounds nuw i8, ptr %11, i64 48
  %40 = load i32, ptr %39, align 8, !tbaa !80
  br label %41

41:                                               ; preds = %35, %38
  %.sink29 = phi i32 [ %40, %38 ], [ 0, %35 ]
  %42 = getelementptr inbounds nuw i8, ptr %0, i64 132
  store i32 %.sink29, ptr %42, align 4, !tbaa !82
  %43 = getelementptr inbounds nuw i8, ptr %0, i64 136
  store double %12, ptr %43, align 8, !tbaa !102
  %44 = getelementptr inbounds nuw i8, ptr %7, i64 48
  %45 = load i32, ptr %44, align 8, !tbaa !80
  %46 = getelementptr inbounds nuw i8, ptr %0, i64 112
  store i32 %45, ptr %46, align 8, !tbaa !97
  %47 = getelementptr inbounds nuw i8, ptr %10, i64 48
  %48 = load i32, ptr %47, align 8, !tbaa !80
  %49 = getelementptr inbounds nuw i8, ptr %0, i64 128
  store i32 %48, ptr %49, align 8, !tbaa !98
  ret void
}